target datalayout = "e-m:e-p270:32:32-p271:32:32-p272:64:64-i64:64-i128:128-f80:128-n8:16:32:64-S128"
target triple = "x86_64-pc-linux-gnu"

%"class.Assimp::ZipArchiveIOSystem" = type { %"class.Assimp::IOSystem", ptr }
%"class.Assimp::IOSystem" = type { ptr, %"class.std::vector" }
%"class.std::vector" = type { %"struct.std::_Vector_base" }
%"struct.std::_Vector_base" = type { %"struct.std::_Vector_base<std::__cxx11::basic_string<char>, std::allocator<std::__cxx11::basic_string<char>>>::_Vector_impl" }
%"struct.std::_Vector_base<std::__cxx11::basic_string<char>, std::allocator<std::__cxx11::basic_string<char>>>::_Vector_impl" = type { %"struct.std::_Vector_base<std::__cxx11::basic_string<char>, std::allocator<std::__cxx11::basic_string<char>>>::_Vector_impl_data" }
%"struct.std::_Vector_base<std::__cxx11::basic_string<char>, std::allocator<std::__cxx11::basic_string<char>>>::_Vector_impl_data" = type { ptr, ptr, ptr }

@.str = private unnamed_addr constant [17 x i8] c"3D/3dmodel.model\00", align 1
@.str.1 = private unnamed_addr constant [2 x i8] c"r\00", align 1

; Function Attrs: mustprogress uwtable
define hidden noundef zeroext i1 @_ZNK6Assimp12D3MFImporter7CanReadERKNSt7__cxx1112basic_stringIcSt11char_traitsIcESaIcEEEPNS_8IOSystemEb(ptr noundef nonnull align 8 dereferenceable(72) %0, ptr noundef nonnull align 8 dereferenceable(32) %1, ptr noundef %2, i1 noundef zeroext %3) unnamed_addr #5 align 2 personality ptr @__gxx_personality_v0 {
  %5 = alloca i1, align 1
  %6 = alloca ptr, align 8
  %7 = alloca ptr, align 8
  %8 = alloca ptr, align 8
  %9 = alloca i8, align 1
  %10 = alloca %"class.Assimp::ZipArchiveIOSystem", align 8
  %11 = alloca ptr, align 8
  %12 = alloca i32, align 4
  %13 = alloca i32, align 4
  store ptr %0, ptr %6, align 8
  store ptr %1, ptr %7, align 8
  store ptr %2, ptr %8, align 8
  %14 = zext i1 %3 to i8
  store i8 %14, ptr %9, align 1
  %15 = load ptr, ptr %8, align 8
  %16 = load ptr, ptr %7, align 8
  %17 = call noundef zeroext i1 @_ZN6Assimp18ZipArchiveIOSystem12isZipArchiveEPNS_8IOSystemERKNSt7__cxx1112basic_stringIcSt11char_traitsIcESaIcEEE(ptr noundef %15, ptr noundef nonnull align 8 dereferenceable(32) %16)
  br i1 %17, label %19, label %18

18:                                               ; preds = %4
  store i1 false, ptr %5, align 1
  br label %31

19:                                               ; preds = %4
  call void @llvm.lifetime.start.p0(i64 40, ptr %10) #4
  %20 = load ptr, ptr %8, align 8
  %21 = load ptr, ptr %7, align 8
  call void @_ZN6Assimp18ZipArchiveIOSystemC1EPNS_8IOSystemERKNSt7__cxx1112basic_stringIcSt11char_traitsIcESaIcEEEPKc(ptr noundef nonnull align 8 dereferenceable(40) %10, ptr noundef %20, ptr noundef nonnull align 8 dereferenceable(32) %21, ptr noundef @.str.1)
  %22 = invoke noundef zeroext i1 @_ZNK6Assimp18ZipArchiveIOSystem6ExistsEPKc(ptr noundef nonnull align 8 dereferenceable(40) %10, ptr noundef @.str)
          to label %23 unwind label %25

23:                                               ; preds = %19
  br i1 %22, label %29, label %24

24:                                               ; preds = %23
  store i1 false, ptr %5, align 1
  store i32 1, ptr %13, align 4
  br label %30

25:                                               ; preds = %19
  %26 = landingpad { ptr, i32 }
          cleanup
  %27 = extractvalue { ptr, i32 } %26, 0
  store ptr %27, ptr %11, align 8
  %28 = extractvalue { ptr, i32 } %26, 1
  store i32 %28, ptr %12, align 4
  call void @_ZN6Assimp18ZipArchiveIOSystemD1Ev(ptr noundef nonnull align 8 dereferenceable(40) %10) #4
  call void @llvm.lifetime.end.p0(i64 40, ptr %10) #4
  br label %33

29:                                               ; preds = %23
  store i1 true, ptr %5, align 1
  store i32 1, ptr %13, align 4
  br label %30

30:                                               ; preds = %29, %24
  call void @_ZN6Assimp18ZipArchiveIOSystemD1Ev(ptr noundef nonnull align 8 dereferenceable(40) %10) #4
  call void @llvm.lifetime.end.p0(i64 40, ptr %10) #4
  br label %31

31:                                               ; preds = %30, %18
  %32 = load i1, ptr %5, align 1
  ret i1 %32

33:                                               ; preds = %25
  %34 = load ptr, ptr %11, align 8
  %35 = load i32, ptr %12, align 4
  %36 = insertvalue { ptr, i32 } poison, ptr %34, 0
  %37 = insertvalue { ptr, i32 } %36, i32 %35, 1
  resume { ptr, i32 } %37
}