; Function Attrs: mustprogress uwtable
define hidden noundef zeroext i1 @_ZNK6Assimp12D3MFImporter7CanReadERKNSt7__cxx1112basic_stringIcSt11char_traitsIcESaIcEEEPNS_8IOSystemEb(ptr nonnull readnone align 8 captures(none) %0, ptr noundef nonnull align 8 dereferenceable(32) %1, ptr noundef %2, i1 zeroext %3) unnamed_addr #3 align 2 personality ptr @__gxx_personality_v0 {
  %5 = alloca %"class.Assimp::ZipArchiveIOSystem", align 8
  %6 = tail call noundef zeroext i1 @_ZN6Assimp18ZipArchiveIOSystem12isZipArchiveEPNS_8IOSystemERKNSt7__cxx1112basic_stringIcSt11char_traitsIcESaIcEEE(ptr noundef %2, ptr noundef nonnull align 8 dereferenceable(32) %1)
  br i1 %6, label %7, label %12

7:                                                ; preds = %4
  call void @llvm.lifetime.start.p0(i64 40, ptr nonnull %5) #24
  call void @_ZN6Assimp18ZipArchiveIOSystemC1EPNS_8IOSystemERKNSt7__cxx1112basic_stringIcSt11char_traitsIcESaIcEEEPKc(ptr noundef nonnull align 8 dereferenceable(40) %5, ptr noundef %2, ptr noundef nonnull align 8 dereferenceable(32) %1, ptr noundef nonnull @.str.1)
  %8 = invoke noundef zeroext i1 @_ZNK6Assimp18ZipArchiveIOSystem6ExistsEPKc(ptr noundef nonnull align 8 dereferenceable(40) %5, ptr noundef nonnull @.str)
          to label %11 unwind label %9

9:                                                ; preds = %7
  %10 = landingpad { ptr, i32 }
          cleanup
  call void @_ZN6Assimp18ZipArchiveIOSystemD1Ev(ptr noundef nonnull align 8 dereferenceable(40) %5) #24
  call void @llvm.lifetime.end.p0(i64 40, ptr nonnull %5) #24
  resume { ptr, i32 } %10

11:                                               ; preds = %7
  call void @_ZN6Assimp18ZipArchiveIOSystemD1Ev(ptr noundef nonnull align 8 dereferenceable(40) %5) #24
  call void @llvm.lifetime.end.p0(i64 40, ptr nonnull %5) #24
  br label %12

12:                                               ; preds = %4, %11
  %.0 = phi i1 [ %8, %11 ], [ false, %4 ]
  ret i1 %.0
}